target datalayout = "e-m:e-p270:32:32-p271:32:32-p272:64:64-i64:64-i128:128-f80:128-n8:16:32:64-S128"
target triple = "x86_64-pc-linux-gnu"

@.str.2 = private unnamed_addr constant [26 x i8] c"../openssl/test/srptest.c\00", align 1
@.str.52 = private unnamed_addr constant [23 x i8] c"BN_hex2bn(&tmp, hexbn)\00", align 1
@.str.53 = private unnamed_addr constant [20 x i8] c"unexpected %s value\00", align 1
@.str.54 = private unnamed_addr constant [3 x i8] c"bn\00", align 1
@.str.55 = private unnamed_addr constant [4 x i8] c"tmp\00", align 1

; Function Attrs: nounwind uwtable
define internal i32 @check_bn(ptr noundef %0, ptr noundef %1, ptr noundef %2) #0 {
  %4 = alloca i32, align 4
  %5 = alloca ptr, align 8
  %6 = alloca ptr, align 8
  %7 = alloca ptr, align 8
  %8 = alloca ptr, align 8
  %9 = alloca i32, align 4
  %10 = alloca i32, align 4
  store ptr %0, ptr %5, align 8, !tbaa !17
  store ptr %1, ptr %6, align 8, !tbaa !8
  store ptr %2, ptr %7, align 8, !tbaa !17
  call void @llvm.lifetime.start.p0(i64 8, ptr %8) #3
  store ptr null, ptr %8, align 8, !tbaa !8
  call void @llvm.lifetime.start.p0(i64 4, ptr %9) #3
  %11 = load ptr, ptr %7, align 8, !tbaa !17
  %12 = call i32 @BN_hex2bn(ptr noundef %8, ptr noundef %11)
  %13 = icmp ne i32 %12, 0
  %14 = zext i1 %13 to i32
  %15 = call i32 @test_true(ptr noundef @.str.2, i32 noundef 125, ptr noundef @.str.52, i32 noundef %14)
  %16 = icmp ne i32 %15, 0
  br i1 %16, label %18, label %17

17:                                               ; preds = %3
  store i32 0, ptr %4, align 4
  store i32 1, ptr %10, align 4
  br label %31

18:                                               ; preds = %3
  %19 = load ptr, ptr %6, align 8, !tbaa !8
  %20 = load ptr, ptr %8, align 8, !tbaa !8
  %21 = call i32 @BN_cmp(ptr noundef %19, ptr noundef %20)
  %22 = icmp ne i32 %21, 0
  br i1 %22, label %23, label %25

23:                                               ; preds = %18
  %24 = load ptr, ptr %5, align 8, !tbaa !17
  call void (ptr, i32, ptr, ...) @test_error(ptr noundef @.str.2, i32 noundef 129, ptr noundef @.str.53, ptr noundef %24)
  br label %25

25:                                               ; preds = %23, %18
  %26 = load ptr, ptr %6, align 8, !tbaa !8
  %27 = load ptr, ptr %8, align 8, !tbaa !8
  %28 = call i32 @test_BN_eq(ptr noundef @.str.2, i32 noundef 130, ptr noundef @.str.54, ptr noundef @.str.55, ptr noundef %26, ptr noundef %27)
  store i32 %28, ptr %9, align 4, !tbaa !4
  %29 = load ptr, ptr %8, align 8, !tbaa !8
  call void @BN_free(ptr noundef %29)
  %30 = load i32, ptr %9, align 4, !tbaa !4
  store i32 %30, ptr %4, align 4
  store i32 1, ptr %10, align 4
  br label %31

31:                                               ; preds = %25, %17
  call void @llvm.lifetime.end.p0(i64 4, ptr %9) #3
  call void @llvm.lifetime.end.p0(i64 8, ptr %8) #3
  %32 = load i32, ptr %4, align 4
  ret i32 %32
}