; Function Attrs: nounwind uwtable
define internal fastcc i32 @check_bn(ptr noundef %0, ptr noundef %1, ptr noundef %2) unnamed_addr #0 {
  %4 = alloca ptr, align 8
  call void @llvm.lifetime.start.p0(i64 8, ptr nonnull %4) #3
  store ptr null, ptr %4, align 8, !tbaa !4
  %5 = call i32 @BN_hex2bn(ptr noundef nonnull %4, ptr noundef %2) #3
  %6 = icmp ne i32 %5, 0
  %7 = zext i1 %6 to i32
  %8 = call i32 @test_true(ptr noundef nonnull @.str.2, i32 noundef 125, ptr noundef nonnull @.str.52, i32 noundef %7) #3
  %.not = icmp eq i32 %8, 0
  br i1 %.not, label %17, label %9

9:                                                ; preds = %3
  %10 = load ptr, ptr %4, align 8, !tbaa !4
  %11 = call i32 @BN_cmp(ptr noundef %1, ptr noundef %10) #3
  %.not5 = icmp eq i32 %11, 0
  br i1 %.not5, label %13, label %12

12:                                               ; preds = %9
  call void (ptr, i32, ptr, ...) @test_error(ptr noundef nonnull @.str.2, i32 noundef 129, ptr noundef nonnull @.str.53, ptr noundef %0) #3
  br label %13

13:                                               ; preds = %12, %9
  %14 = load ptr, ptr %4, align 8, !tbaa !4
  %15 = call i32 @test_BN_eq(ptr noundef nonnull @.str.2, i32 noundef 130, ptr noundef nonnull @.str.54, ptr noundef nonnull @.str.55, ptr noundef %1, ptr noundef %14) #3
  %16 = load ptr, ptr %4, align 8, !tbaa !4
  call void @BN_free(ptr noundef %16) #3
  br label %17

17:                                               ; preds = %3, %13
  %.0 = phi i32 [ %15, %13 ], [ 0, %3 ]
  call void @llvm.lifetime.end.p0(i64 8, ptr nonnull %4) #3
  ret i32 %.0
}